	.file	"asm-offsets.c"
# GNU C (Debian 4.8.3-12) version 4.8.3 (i586-linux-gnu)
#	compiled by GNU C version 4.8.3, GMP version 6.0.0, MPFR version 3.1.2-p3, MPC version 1.0.2
# GGC heuristics: --param ggc-min-expand=100 --param ggc-min-heapsize=131072
# options passed:  -nostdinc
# -I /build/linux-I5YRU_/linux-3.16.5/arch/x86/include
# -I arch/x86/include/generated -I /build/linux-I5YRU_/linux-3.16.5/include
# -I include -I /build/linux-I5YRU_/linux-3.16.5/arch/x86/include/uapi
# -I arch/x86/include/generated/uapi
# -I /build/linux-I5YRU_/linux-3.16.5/include/uapi
# -I include/generated/uapi -I /build/linux-I5YRU_/linux-3.16.5/. -I .
# -imultiarch i386-linux-gnu -D __KERNEL__ -D CONFIG_AS_CFI=1
# -D CONFIG_AS_CFI_SIGNAL_FRAME=1 -D CONFIG_AS_CFI_SECTIONS=1
# -D CONFIG_AS_CRC32=1 -D CONFIG_AS_AVX=1 -D CONFIG_AS_AVX2=1
# -D CC_HAVE_ASM_GOTO -D KBUILD_STR(s)=#s
# -D KBUILD_BASENAME=KBUILD_STR(asm_offsets)
# -D KBUILD_MODNAME=KBUILD_STR(asm_offsets)
# -isystem /usr/lib/gcc/i586-linux-gnu/4.8/include
# -include /build/linux-I5YRU_/linux-3.16.5/include/linux/kconfig.h
# -MD arch/x86/kernel/.asm-offsets.s.d
# /build/linux-I5YRU_/linux-3.16.5/arch/x86/kernel/asm-offsets.c -m32
# -msoft-float -mregparm=3 -mpreferred-stack-boundary=2 -march=i686
# -mtune=generic -maccumulate-outgoing-args -mno-sse -mno-mmx -mno-sse2
# -mno-3dnow -mno-avx -auxbase-strip arch/x86/kernel/asm-offsets.s -g -O2
# -Wall -Wundef -Wstrict-prototypes -Wno-trigraphs
# -Werror=implicit-function-declaration -Wno-format-security
# -Wno-sign-compare -Wframe-larger-than=1024 -Wno-unused-but-set-variable
# -Wdeclaration-after-statement -Wno-pointer-sign -Werror=implicit-int
# -Werror=strict-prototypes -p -fno-strict-aliasing -fno-common
# -freg-struct-return -fno-pic -ffreestanding
# -fno-asynchronous-unwind-tables -fno-delete-null-pointer-checks
# -fstack-protector -fno-var-tracking-assignments -fno-strict-overflow
# -fconserve-stack -fverbose-asm
# options enabled:  -faggressive-loop-optimizations -fauto-inc-dec
# -fbranch-count-reg -fcaller-saves -fcombine-stack-adjustments
# -fcompare-elim -fcprop-registers -fcrossjumping -fcse-follow-jumps
# -fdefer-pop -fdevirtualize -fdwarf2-cfi-asm -fearly-inlining
# -feliminate-unused-debug-types -fexpensive-optimizations
# -fforward-propagate -ffunction-cse -fgcse -fgcse-lm -fgnu-runtime
# -fgnu-unique -fguess-branch-probability -fhoist-adjacent-loads -fident
# -fif-conversion -fif-conversion2 -findirect-inlining -finline
# -finline-atomics -finline-functions-called-once -finline-small-functions
# -fipa-cp -fipa-profile -fipa-pure-const -fipa-reference -fipa-sra
# -fira-hoist-pressure -fira-share-save-slots -fira-share-spill-slots
# -fivopts -fkeep-static-consts -fleading-underscore -fmath-errno
# -fmerge-constants -fmerge-debug-strings -fmove-loop-invariants
# -fomit-frame-pointer -foptimize-register-move -foptimize-sibling-calls
# -foptimize-strlen -fpartial-inlining -fpeephole -fpeephole2
# -fprefetch-loop-arrays -fprofile -free -freg-struct-return -fregmove
# -freorder-blocks -freorder-functions -frerun-cse-after-loop
# -fsched-critical-path-heuristic -fsched-dep-count-heuristic
# -fsched-group-heuristic -fsched-interblock -fsched-last-insn-heuristic
# -fsched-rank-heuristic -fsched-spec -fsched-spec-insn-heuristic
# -fsched-stalled-insns-dep -fschedule-insns2 -fshow-column -fshrink-wrap
# -fsigned-zeros -fsplit-ivs-in-unroller -fsplit-wide-types
# -fstack-protector -fstrict-volatile-bitfields -fsync-libcalls
# -fthread-jumps -ftoplevel-reorder -ftrapping-math -ftree-bit-ccp
# -ftree-builtin-call-dce -ftree-ccp -ftree-ch -ftree-coalesce-vars
# -ftree-copy-prop -ftree-copyrename -ftree-cselim -ftree-dce
# -ftree-dominator-opts -ftree-dse -ftree-forwprop -ftree-fre
# -ftree-loop-if-convert -ftree-loop-im -ftree-loop-ivcanon
# -ftree-loop-optimize -ftree-parallelize-loops= -ftree-phiprop -ftree-pre
# -ftree-pta -ftree-reassoc -ftree-scev-cprop -ftree-sink
# -ftree-slp-vectorize -ftree-slsr -ftree-sra -ftree-switch-conversion
# -ftree-tail-merge -ftree-ter -ftree-vect-loop-version -ftree-vrp
# -funit-at-a-time -fvar-tracking -fverbose-asm -fzero-initialized-in-bss
# -m32 -m96bit-long-double -maccumulate-outgoing-args -malign-stringops
# -mglibc -mieee-fp -mlong-double-80 -mno-fancy-math-387 -mno-red-zone
# -mno-sse4 -mpush-args -msahf -mtls-direct-seg-refs

	.text
.Ltext0:
	.cfi_sections	.debug_frame
	.p2align 4,,15
	.globl	foo
	.type	foo, @function
foo:
.LFB2244:
	.file 1 "/build/linux-I5YRU_/linux-3.16.5/arch/x86/kernel/asm-offsets_32.c"
	.loc 1 15 0
	.cfi_startproc
	pushl	%ebp	#
	.cfi_def_cfa_offset 8
	.cfi_offset 5, -8
	movl	%esp, %ebp	#,
	.cfi_def_cfa_register 5
	call	mcount
	.loc 1 15 0
	.loc 1 16 0
#APP
# 16 "/build/linux-I5YRU_/linux-3.16.5/arch/x86/kernel/asm-offsets_32.c" 1
	
->IA32_SIGCONTEXT_ax $44 offsetof(struct sigcontext, ax)	#
# 0 "" 2
	.loc 1 17 0
# 17 "/build/linux-I5YRU_/linux-3.16.5/arch/x86/kernel/asm-offsets_32.c" 1
	
->IA32_SIGCONTEXT_bx $32 offsetof(struct sigcontext, bx)	#
# 0 "" 2
	.loc 1 18 0
# 18 "/build/linux-I5YRU_/linux-3.16.5/arch/x86/kernel/asm-offsets_32.c" 1
	
->IA32_SIGCONTEXT_cx $40 offsetof(struct sigcontext, cx)	#
# 0 "" 2
	.loc 1 19 0
# 19 "/build/linux-I5YRU_/linux-3.16.5/arch/x86/kernel/asm-offsets_32.c" 1
	
->IA32_SIGCONTEXT_dx $36 offsetof(struct sigcontext, dx)	#
# 0 "" 2
	.loc 1 20 0
# 20 "/build/linux-I5YRU_/linux-3.16.5/arch/x86/kernel/asm-offsets_32.c" 1
	
->IA32_SIGCONTEXT_si $20 offsetof(struct sigcontext, si)	#
# 0 "" 2
	.loc 1 21 0
# 21 "/build/linux-I5YRU_/linux-3.16.5/arch/x86/kernel/asm-offsets_32.c" 1
	
->IA32_SIGCONTEXT_di $16 offsetof(struct sigcontext, di)	#
# 0 "" 2
	.loc 1 22 0
# 22 "/build/linux-I5YRU_/linux-3.16.5/arch/x86/kernel/asm-offsets_32.c" 1
	
->IA32_SIGCONTEXT_bp $24 offsetof(struct sigcontext, bp)	#
# 0 "" 2
	.loc 1 23 0
# 23 "/build/linux-I5YRU_/linux-3.16.5/arch/x86/kernel/asm-offsets_32.c" 1
	
->IA32_SIGCONTEXT_sp $28 offsetof(struct sigcontext, sp)	#
# 0 "" 2
	.loc 1 24 0
# 24 "/build/linux-I5YRU_/linux-3.16.5/arch/x86/kernel/asm-offsets_32.c" 1
	
->IA32_SIGCONTEXT_ip $56 offsetof(struct sigcontext, ip)	#
# 0 "" 2
	.loc 1 25 0
# 25 "/build/linux-I5YRU_/linux-3.16.5/arch/x86/kernel/asm-offsets_32.c" 1
	
->
# 0 "" 2
	.loc 1 27 0
# 27 "/build/linux-I5YRU_/linux-3.16.5/arch/x86/kernel/asm-offsets_32.c" 1
	
->CPUINFO_x86 $0 offsetof(struct cpuinfo_x86, x86)	#
# 0 "" 2
	.loc 1 28 0
# 28 "/build/linux-I5YRU_/linux-3.16.5/arch/x86/kernel/asm-offsets_32.c" 1
	
->CPUINFO_x86_vendor $1 offsetof(struct cpuinfo_x86, x86_vendor)	#
# 0 "" 2
	.loc 1 29 0
# 29 "/build/linux-I5YRU_/linux-3.16.5/arch/x86/kernel/asm-offsets_32.c" 1
	
->CPUINFO_x86_model $2 offsetof(struct cpuinfo_x86, x86_model)	#
# 0 "" 2
	.loc 1 30 0
# 30 "/build/linux-I5YRU_/linux-3.16.5/arch/x86/kernel/asm-offsets_32.c" 1
	
->CPUINFO_x86_mask $3 offsetof(struct cpuinfo_x86, x86_mask)	#
# 0 "" 2
	.loc 1 31 0
# 31 "/build/linux-I5YRU_/linux-3.16.5/arch/x86/kernel/asm-offsets_32.c" 1
	
->CPUINFO_cpuid_level $16 offsetof(struct cpuinfo_x86, cpuid_level)	#
# 0 "" 2
	.loc 1 32 0
# 32 "/build/linux-I5YRU_/linux-3.16.5/arch/x86/kernel/asm-offsets_32.c" 1
	
->CPUINFO_x86_capability $20 offsetof(struct cpuinfo_x86, x86_capability)	#
# 0 "" 2
	.loc 1 33 0
# 33 "/build/linux-I5YRU_/linux-3.16.5/arch/x86/kernel/asm-offsets_32.c" 1
	
->CPUINFO_x86_vendor_id $64 offsetof(struct cpuinfo_x86, x86_vendor_id)	#
# 0 "" 2
	.loc 1 34 0
# 34 "/build/linux-I5YRU_/linux-3.16.5/arch/x86/kernel/asm-offsets_32.c" 1
	
->
# 0 "" 2
	.loc 1 36 0
# 36 "/build/linux-I5YRU_/linux-3.16.5/arch/x86/kernel/asm-offsets_32.c" 1
	
->TI_sysenter_return $60 offsetof(struct thread_info, sysenter_return)	#
# 0 "" 2
	.loc 1 37 0
# 37 "/build/linux-I5YRU_/linux-3.16.5/arch/x86/kernel/asm-offsets_32.c" 1
	
->TI_cpu $16 offsetof(struct thread_info, cpu)	#
# 0 "" 2
	.loc 1 38 0
# 38 "/build/linux-I5YRU_/linux-3.16.5/arch/x86/kernel/asm-offsets_32.c" 1
	
->
# 0 "" 2
	.loc 1 40 0
# 40 "/build/linux-I5YRU_/linux-3.16.5/arch/x86/kernel/asm-offsets_32.c" 1
	
->PT_EBX $0 offsetof(struct pt_regs, bx)	#
# 0 "" 2
	.loc 1 41 0
# 41 "/build/linux-I5YRU_/linux-3.16.5/arch/x86/kernel/asm-offsets_32.c" 1
	
->PT_ECX $4 offsetof(struct pt_regs, cx)	#
# 0 "" 2
	.loc 1 42 0
# 42 "/build/linux-I5YRU_/linux-3.16.5/arch/x86/kernel/asm-offsets_32.c" 1
	
->PT_EDX $8 offsetof(struct pt_regs, dx)	#
# 0 "" 2
	.loc 1 43 0
# 43 "/build/linux-I5YRU_/linux-3.16.5/arch/x86/kernel/asm-offsets_32.c" 1
	
->PT_ESI $12 offsetof(struct pt_regs, si)	#
# 0 "" 2
	.loc 1 44 0
# 44 "/build/linux-I5YRU_/linux-3.16.5/arch/x86/kernel/asm-offsets_32.c" 1
	
->PT_EDI $16 offsetof(struct pt_regs, di)	#
# 0 "" 2
	.loc 1 45 0
# 45 "/build/linux-I5YRU_/linux-3.16.5/arch/x86/kernel/asm-offsets_32.c" 1
	
->PT_EBP $20 offsetof(struct pt_regs, bp)	#
# 0 "" 2
	.loc 1 46 0
# 46 "/build/linux-I5YRU_/linux-3.16.5/arch/x86/kernel/asm-offsets_32.c" 1
	
->PT_EAX $24 offsetof(struct pt_regs, ax)	#
# 0 "" 2
	.loc 1 47 0
# 47 "/build/linux-I5YRU_/linux-3.16.5/arch/x86/kernel/asm-offsets_32.c" 1
	
->PT_DS $28 offsetof(struct pt_regs, ds)	#
# 0 "" 2
	.loc 1 48 0
# 48 "/build/linux-I5YRU_/linux-3.16.5/arch/x86/kernel/asm-offsets_32.c" 1
	
->PT_ES $32 offsetof(struct pt_regs, es)	#
# 0 "" 2
	.loc 1 49 0
# 49 "/build/linux-I5YRU_/linux-3.16.5/arch/x86/kernel/asm-offsets_32.c" 1
	
->PT_FS $36 offsetof(struct pt_regs, fs)	#
# 0 "" 2
	.loc 1 50 0
# 50 "/build/linux-I5YRU_/linux-3.16.5/arch/x86/kernel/asm-offsets_32.c" 1
	
->PT_GS $40 offsetof(struct pt_regs, gs)	#
# 0 "" 2
	.loc 1 51 0
# 51 "/build/linux-I5YRU_/linux-3.16.5/arch/x86/kernel/asm-offsets_32.c" 1
	
->PT_ORIG_EAX $44 offsetof(struct pt_regs, orig_ax)	#
# 0 "" 2
	.loc 1 52 0
# 52 "/build/linux-I5YRU_/linux-3.16.5/arch/x86/kernel/asm-offsets_32.c" 1
	
->PT_EIP $48 offsetof(struct pt_regs, ip)	#
# 0 "" 2
	.loc 1 53 0
# 53 "/build/linux-I5YRU_/linux-3.16.5/arch/x86/kernel/asm-offsets_32.c" 1
	
->PT_CS $52 offsetof(struct pt_regs, cs)	#
# 0 "" 2
	.loc 1 54 0
# 54 "/build/linux-I5YRU_/linux-3.16.5/arch/x86/kernel/asm-offsets_32.c" 1
	
->PT_EFLAGS $56 offsetof(struct pt_regs, flags)	#
# 0 "" 2
	.loc 1 55 0
# 55 "/build/linux-I5YRU_/linux-3.16.5/arch/x86/kernel/asm-offsets_32.c" 1
	
->PT_OLDESP $60 offsetof(struct pt_regs, sp)	#
# 0 "" 2
	.loc 1 56 0
# 56 "/build/linux-I5YRU_/linux-3.16.5/arch/x86/kernel/asm-offsets_32.c" 1
	
->PT_OLDSS $64 offsetof(struct pt_regs, ss)	#
# 0 "" 2
	.loc 1 57 0
# 57 "/build/linux-I5YRU_/linux-3.16.5/arch/x86/kernel/asm-offsets_32.c" 1
	
->
# 0 "" 2
	.loc 1 59 0
# 59 "/build/linux-I5YRU_/linux-3.16.5/arch/x86/kernel/asm-offsets_32.c" 1
	
->IA32_RT_SIGFRAME_sigcontext $164 offsetof(struct rt_sigframe, uc.uc_mcontext)	#
# 0 "" 2
	.loc 1 60 0
# 60 "/build/linux-I5YRU_/linux-3.16.5/arch/x86/kernel/asm-offsets_32.c" 1
	
->
# 0 "" 2
	.loc 1 62 0
# 62 "/build/linux-I5YRU_/linux-3.16.5/arch/x86/kernel/asm-offsets_32.c" 1
	
->saved_context_gdt_desc $33 offsetof(struct saved_context, gdt_desc)	#
# 0 "" 2
	.loc 1 63 0
# 63 "/build/linux-I5YRU_/linux-3.16.5/arch/x86/kernel/asm-offsets_32.c" 1
	
->
# 0 "" 2
	.loc 1 66 0
# 66 "/build/linux-I5YRU_/linux-3.16.5/arch/x86/kernel/asm-offsets_32.c" 1
	
->TSS_sysenter_sp0 $-8572 offsetof(struct tss_struct, x86_tss.sp0) - sizeof(struct tss_struct)	#
# 0 "" 2
	.loc 1 86 0
# 86 "/build/linux-I5YRU_/linux-3.16.5/arch/x86/kernel/asm-offsets_32.c" 1
	
->
# 0 "" 2
	.loc 1 87 0
# 87 "/build/linux-I5YRU_/linux-3.16.5/arch/x86/kernel/asm-offsets_32.c" 1
	
->__NR_syscall_max $356 sizeof(syscalls) - 1	#
# 0 "" 2
	.loc 1 88 0
# 88 "/build/linux-I5YRU_/linux-3.16.5/arch/x86/kernel/asm-offsets_32.c" 1
	
->NR_syscalls $357 sizeof(syscalls)	#
# 0 "" 2
	.loc 1 89 0
#NO_APP
	popl	%ebp	#
	.cfi_restore 5
	.cfi_def_cfa 4, 4
	ret
	.cfi_endproc
.LFE2244:
	.size	foo, .-foo
	.p2align 4,,15
	.globl	common
	.type	common, @function
common:
.LFB2245:
	.file 2 "/build/linux-I5YRU_/linux-3.16.5/arch/x86/kernel/asm-offsets.c"
	.loc 2 30 0
	.cfi_startproc
	pushl	%ebp	#
	.cfi_def_cfa_offset 8
	.cfi_offset 5, -8
	movl	%esp, %ebp	#,
	.cfi_def_cfa_register 5
	call	mcount
	.loc 2 30 0
	.loc 2 31 0
#APP
# 31 "/build/linux-I5YRU_/linux-3.16.5/arch/x86/kernel/asm-offsets.c" 1
	
->
# 0 "" 2
	.loc 2 32 0
# 32 "/build/linux-I5YRU_/linux-3.16.5/arch/x86/kernel/asm-offsets.c" 1
	
->TI_flags $8 offsetof(struct thread_info, flags)	#
# 0 "" 2
	.loc 2 33 0
# 33 "/build/linux-I5YRU_/linux-3.16.5/arch/x86/kernel/asm-offsets.c" 1
	
->TI_status $12 offsetof(struct thread_info, status)	#
# 0 "" 2
	.loc 2 34 0
# 34 "/build/linux-I5YRU_/linux-3.16.5/arch/x86/kernel/asm-offsets.c" 1
	
->TI_addr_limit $24 offsetof(struct thread_info, addr_limit)	#
# 0 "" 2
	.loc 2 36 0
# 36 "/build/linux-I5YRU_/linux-3.16.5/arch/x86/kernel/asm-offsets.c" 1
	
->
# 0 "" 2
	.loc 2 37 0
# 37 "/build/linux-I5YRU_/linux-3.16.5/arch/x86/kernel/asm-offsets.c" 1
	
->crypto_tfm_ctx_offset $48 offsetof(struct crypto_tfm, __crt_ctx)	#
# 0 "" 2
	.loc 2 39 0
# 39 "/build/linux-I5YRU_/linux-3.16.5/arch/x86/kernel/asm-offsets.c" 1
	
->
# 0 "" 2
	.loc 2 40 0
# 40 "/build/linux-I5YRU_/linux-3.16.5/arch/x86/kernel/asm-offsets.c" 1
	
->pbe_address $0 offsetof(struct pbe, address)	#
# 0 "" 2
	.loc 2 41 0
# 41 "/build/linux-I5YRU_/linux-3.16.5/arch/x86/kernel/asm-offsets.c" 1
	
->pbe_orig_address $4 offsetof(struct pbe, orig_address)	#
# 0 "" 2
	.loc 2 42 0
# 42 "/build/linux-I5YRU_/linux-3.16.5/arch/x86/kernel/asm-offsets.c" 1
	
->pbe_next $8 offsetof(struct pbe, next)	#
# 0 "" 2
	.loc 2 45 0
# 45 "/build/linux-I5YRU_/linux-3.16.5/arch/x86/kernel/asm-offsets.c" 1
	
->
# 0 "" 2
	.loc 2 46 0
# 46 "/build/linux-I5YRU_/linux-3.16.5/arch/x86/kernel/asm-offsets.c" 1
	
->PARAVIRT_enabled $8 offsetof(struct pv_info, paravirt_enabled)	#
# 0 "" 2
	.loc 2 47 0
# 47 "/build/linux-I5YRU_/linux-3.16.5/arch/x86/kernel/asm-offsets.c" 1
	
->PARAVIRT_PATCH_pv_cpu_ops $16 offsetof(struct paravirt_patch_template, pv_cpu_ops)	#
# 0 "" 2
	.loc 2 48 0
# 48 "/build/linux-I5YRU_/linux-3.16.5/arch/x86/kernel/asm-offsets.c" 1
	
->PARAVIRT_PATCH_pv_irq_ops $164 offsetof(struct paravirt_patch_template, pv_irq_ops)	#
# 0 "" 2
	.loc 2 49 0
# 49 "/build/linux-I5YRU_/linux-3.16.5/arch/x86/kernel/asm-offsets.c" 1
	
->PV_IRQ_irq_disable $8 offsetof(struct pv_irq_ops, irq_disable)	#
# 0 "" 2
	.loc 2 50 0
# 50 "/build/linux-I5YRU_/linux-3.16.5/arch/x86/kernel/asm-offsets.c" 1
	
->PV_IRQ_irq_enable $12 offsetof(struct pv_irq_ops, irq_enable)	#
# 0 "" 2
	.loc 2 51 0
# 51 "/build/linux-I5YRU_/linux-3.16.5/arch/x86/kernel/asm-offsets.c" 1
	
->PV_CPU_iret $132 offsetof(struct pv_cpu_ops, iret)	#
# 0 "" 2
	.loc 2 52 0
# 52 "/build/linux-I5YRU_/linux-3.16.5/arch/x86/kernel/asm-offsets.c" 1
	
->PV_CPU_irq_enable_sysexit $120 offsetof(struct pv_cpu_ops, irq_enable_sysexit)	#
# 0 "" 2
	.loc 2 53 0
# 53 "/build/linux-I5YRU_/linux-3.16.5/arch/x86/kernel/asm-offsets.c" 1
	
->PV_CPU_read_cr0 $12 offsetof(struct pv_cpu_ops, read_cr0)	#
# 0 "" 2
	.loc 2 54 0
# 54 "/build/linux-I5YRU_/linux-3.16.5/arch/x86/kernel/asm-offsets.c" 1
	
->PV_MMU_read_cr2 $0 offsetof(struct pv_mmu_ops, read_cr2)	#
# 0 "" 2
	.loc 2 58 0
# 58 "/build/linux-I5YRU_/linux-3.16.5/arch/x86/kernel/asm-offsets.c" 1
	
->
# 0 "" 2
	.loc 2 59 0
# 59 "/build/linux-I5YRU_/linux-3.16.5/arch/x86/kernel/asm-offsets.c" 1
	
->XEN_vcpu_info_mask $1 offsetof(struct vcpu_info, evtchn_upcall_mask)	#
# 0 "" 2
	.loc 2 60 0
# 60 "/build/linux-I5YRU_/linux-3.16.5/arch/x86/kernel/asm-offsets.c" 1
	
->XEN_vcpu_info_pending $0 offsetof(struct vcpu_info, evtchn_upcall_pending)	#
# 0 "" 2
	.loc 2 63 0
# 63 "/build/linux-I5YRU_/linux-3.16.5/arch/x86/kernel/asm-offsets.c" 1
	
->
# 0 "" 2
	.loc 2 64 0
# 64 "/build/linux-I5YRU_/linux-3.16.5/arch/x86/kernel/asm-offsets.c" 1
	
->BP_scratch $484 offsetof(struct boot_params, scratch)	#
# 0 "" 2
	.loc 2 65 0
# 65 "/build/linux-I5YRU_/linux-3.16.5/arch/x86/kernel/asm-offsets.c" 1
	
->BP_loadflags $529 offsetof(struct boot_params, hdr.loadflags)	#
# 0 "" 2
	.loc 2 66 0
# 66 "/build/linux-I5YRU_/linux-3.16.5/arch/x86/kernel/asm-offsets.c" 1
	
->BP_hardware_subarch $572 offsetof(struct boot_params, hdr.hardware_subarch)	#
# 0 "" 2
	.loc 2 67 0
# 67 "/build/linux-I5YRU_/linux-3.16.5/arch/x86/kernel/asm-offsets.c" 1
	
->BP_version $518 offsetof(struct boot_params, hdr.version)	#
# 0 "" 2
	.loc 2 68 0
# 68 "/build/linux-I5YRU_/linux-3.16.5/arch/x86/kernel/asm-offsets.c" 1
	
->BP_kernel_alignment $560 offsetof(struct boot_params, hdr.kernel_alignment)	#
# 0 "" 2
	.loc 2 69 0
# 69 "/build/linux-I5YRU_/linux-3.16.5/arch/x86/kernel/asm-offsets.c" 1
	
->BP_pref_address $600 offsetof(struct boot_params, hdr.pref_address)	#
# 0 "" 2
	.loc 2 70 0
# 70 "/build/linux-I5YRU_/linux-3.16.5/arch/x86/kernel/asm-offsets.c" 1
	
->BP_code32_start $532 offsetof(struct boot_params, hdr.code32_start)	#
# 0 "" 2
	.loc 2 72 0
# 72 "/build/linux-I5YRU_/linux-3.16.5/arch/x86/kernel/asm-offsets.c" 1
	
->
# 0 "" 2
	.loc 2 73 0
# 73 "/build/linux-I5YRU_/linux-3.16.5/arch/x86/kernel/asm-offsets.c" 1
	
->PTREGS_SIZE $68 sizeof(struct pt_regs)	#
# 0 "" 2
	.loc 2 74 0
#NO_APP
	popl	%ebp	#
	.cfi_restore 5
	.cfi_def_cfa 4, 4
	ret
	.cfi_endproc
.LFE2245:
	.size	common, .-common
.Letext0:
	.file 3 "/build/linux-I5YRU_/linux-3.16.5/include/uapi/asm-generic/int-ll64.h"
	.file 4 "/build/linux-I5YRU_/linux-3.16.5/include/asm-generic/int-ll64.h"
	.file 5 "/build/linux-I5YRU_/linux-3.16.5/include/uapi/asm-generic/posix_types.h"
	.file 6 "/build/linux-I5YRU_/linux-3.16.5/include/linux/types.h"
	.file 7 "/build/linux-I5YRU_/linux-3.16.5/arch/x86/include/asm/ptrace.h"
	.file 8 "/build/linux-I5YRU_/linux-3.16.5/arch/x86/include/asm/desc_defs.h"
	.file 9 "/build/linux-I5YRU_/linux-3.16.5/arch/x86/include/asm/pgtable-3level_types.h"
	.file 10 "/build/linux-I5YRU_/linux-3.16.5/arch/x86/include/asm/pgtable_types.h"
	.file 11 "/build/linux-I5YRU_/linux-3.16.5/include/asm-generic/pgtable-nopud.h"
	.file 12 "/build/linux-I5YRU_/linux-3.16.5/include/linux/mm_types.h"
	.file 13 "/build/linux-I5YRU_/linux-3.16.5/arch/x86/include/asm/paravirt_types.h"
	.file 14 "/build/linux-I5YRU_/linux-3.16.5/arch/x86/include/asm/processor.h"
	.file 15 "/build/linux-I5YRU_/linux-3.16.5/include/linux/sched.h"
	.file 16 "/build/linux-I5YRU_/linux-3.16.5/include/linux/cpumask.h"
	.file 17 "/build/linux-I5YRU_/linux-3.16.5/arch/x86/include/asm/spinlock_types.h"
	.file 18 "/build/linux-I5YRU_/linux-3.16.5/include/asm-generic/qrwlock_types.h"
	.file 19 "/build/linux-I5YRU_/linux-3.16.5/arch/x86/include/uapi/asm/vm86.h"
	.file 20 "/build/linux-I5YRU_/linux-3.16.5/arch/x86/include/asm/vm86.h"
	.file 21 "/build/linux-I5YRU_/linux-3.16.5/arch/x86/include/asm/math_emu.h"
	.file 22 "/build/linux-I5YRU_/linux-3.16.5/include/asm-generic/atomic-long.h"
	.file 23 "/build/linux-I5YRU_/linux-3.16.5/include/uapi/linux/time.h"
	.file 24 "/build/linux-I5YRU_/linux-3.16.5/include/linux/spinlock_types.h"
	.file 25 "/build/linux-I5YRU_/linux-3.16.5/include/linux/rwlock_types.h"
	.file 26 "/build/linux-I5YRU_/linux-3.16.5/include/linux/jump_label.h"
	.file 27 "/build/linux-I5YRU_/linux-3.16.5/arch/x86/include/asm/jump_label.h"
	.file 28 "/build/linux-I5YRU_/linux-3.16.5/include/linux/wait.h"
	.file 29 "/build/linux-I5YRU_/linux-3.16.5/include/linux/seqlock.h"
	.file 30 "/build/linux-I5YRU_/linux-3.16.5/include/linux/nodemask.h"
	.file 31 "/build/linux-I5YRU_/linux-3.16.5/include/linux/mmzone.h"
	.file 32 "/build/linux-I5YRU_/linux-3.16.5/include/linux/osq_lock.h"
	.file 33 "/build/linux-I5YRU_/linux-3.16.5/include/linux/mutex.h"
	.file 34 "/build/linux-I5YRU_/linux-3.16.5/include/linux/rwsem.h"
	.file 35 "/build/linux-I5YRU_/linux-3.16.5/include/linux/completion.h"
	.file 36 "/build/linux-I5YRU_/linux-3.16.5/include/linux/ktime.h"
	.file 37 "/build/linux-I5YRU_/linux-3.16.5/include/linux/workqueue.h"
	.file 38 "/build/linux-I5YRU_/linux-3.16.5/include/linux/llist.h"
	.file 39 "/build/linux-I5YRU_/linux-3.16.5/arch/x86/include/asm/mpspec_def.h"
	.file 40 "/build/linux-I5YRU_/linux-3.16.5/include/linux/ioport.h"
	.file 41 "/build/linux-I5YRU_/linux-3.16.5/arch/x86/include/asm/x86_init.h"
	.file 42 "/build/linux-I5YRU_/linux-3.16.5/include/linux/irq.h"
	.file 43 "/build/linux-I5YRU_/linux-3.16.5/arch/x86/include/asm/io_apic.h"
	.file 44 "/build/linux-I5YRU_/linux-3.16.5/arch/x86/include/asm/hw_irq.h"
	.file 45 "/build/linux-I5YRU_/linux-3.16.5/arch/x86/include/asm/mpspec.h"
	.file 46 "/build/linux-I5YRU_/linux-3.16.5/arch/x86/include/asm/mmu.h"
	.file 47 "/build/linux-I5YRU_/linux-3.16.5/include/linux/rbtree.h"
	.file 48 "/build/linux-I5YRU_/linux-3.16.5/arch/x86/include/asm/apic.h"
	.file 49 "/build/linux-I5YRU_/linux-3.16.5/arch/x86/include/asm/smp.h"
	.file 50 "/build/linux-I5YRU_/linux-3.16.5/include/linux/reciprocal_div.h"
	.file 51 "/build/linux-I5YRU_/linux-3.16.5/include/linux/slab_def.h"
	.file 52 "/build/linux-I5YRU_/linux-3.16.5/include/linux/capability.h"
	.file 53 "/build/linux-I5YRU_/linux-3.16.5/include/linux/plist.h"
	.file 54 "/build/linux-I5YRU_/linux-3.16.5/arch/x86/include/asm/uprobes.h"
	.file 55 "/build/linux-I5YRU_/linux-3.16.5/include/linux/uprobes.h"
	.file 56 "/build/linux-I5YRU_/linux-3.16.5/include/linux/fs.h"
	.file 57 "/build/linux-I5YRU_/linux-3.16.5/include/linux/mm.h"
	.file 58 "/build/linux-I5YRU_/linux-3.16.5/include/asm-generic/cputime_jiffies.h"
	.file 59 "/build/linux-I5YRU_/linux-3.16.5/include/linux/uidgid.h"
	.file 60 "/build/linux-I5YRU_/linux-3.16.5/include/linux/sem.h"
	.file 61 "/build/linux-I5YRU_/linux-3.16.5/arch/x86/include/asm/signal.h"
	.file 62 "/build/linux-I5YRU_/linux-3.16.5/include/uapi/asm-generic/signal-defs.h"
	.file 63 "/build/linux-I5YRU_/linux-3.16.5/include/uapi/asm-generic/siginfo.h"
	.file 64 "/build/linux-I5YRU_/linux-3.16.5/include/linux/signal.h"
	.file 65 "/build/linux-I5YRU_/linux-3.16.5/include/linux/pid.h"
	.file 66 "/build/linux-I5YRU_/linux-3.16.5/include/linux/percpu_counter.h"
	.file 67 "/build/linux-I5YRU_/linux-3.16.5/include/linux/seccomp.h"
	.file 68 "/build/linux-I5YRU_/linux-3.16.5/include/uapi/linux/resource.h"
	.file 69 "/build/linux-I5YRU_/linux-3.16.5/include/linux/timerqueue.h"
	.file 70 "/build/linux-I5YRU_/linux-3.16.5/include/linux/timer.h"
	.file 71 "/build/linux-I5YRU_/linux-3.16.5/include/linux/hrtimer.h"
	.file 72 "/build/linux-I5YRU_/linux-3.16.5/include/linux/task_io_accounting.h"
	.file 73 "/build/linux-I5YRU_/linux-3.16.5/include/linux/assoc_array.h"
	.file 74 "/build/linux-I5YRU_/linux-3.16.5/include/linux/key.h"
	.file 75 "/build/linux-I5YRU_/linux-3.16.5/include/linux/cred.h"
	.file 76 "/build/linux-I5YRU_/linux-3.16.5/include/uapi/linux/taskstats.h"
	.file 77 "/build/linux-I5YRU_/linux-3.16.5/include/linux/swap.h"
	.file 78 "/build/linux-I5YRU_/linux-3.16.5/include/linux/cgroup.h"
	.file 79 "/build/linux-I5YRU_/linux-3.16.5/include/linux/seq_file.h"
	.file 80 "/build/linux-I5YRU_/linux-3.16.5/include/linux/idr.h"
	.file 81 "/build/linux-I5YRU_/linux-3.16.5/include/linux/list_bl.h"
	.file 82 "/build/linux-I5YRU_/linux-3.16.5/include/linux/lockref.h"
	.file 83 "/build/linux-I5YRU_/linux-3.16.5/include/linux/dcache.h"
	.file 84 "/build/linux-I5YRU_/linux-3.16.5/include/linux/path.h"
	.file 85 "/build/linux-I5YRU_/linux-3.16.5/include/linux/stat.h"
	.file 86 "/build/linux-I5YRU_/linux-3.16.5/include/linux/list_lru.h"
	.file 87 "/build/linux-I5YRU_/linux-3.16.5/include/linux/radix-tree.h"
	.file 88 "/build/linux-I5YRU_/linux-3.16.5/include/uapi/linux/fiemap.h"
	.file 89 "/build/linux-I5YRU_/linux-3.16.5/include/linux/shrinker.h"
	.file 90 "/build/linux-I5YRU_/linux-3.16.5/include/linux/migrate_mode.h"
	.file 91 "/build/linux-I5YRU_/linux-3.16.5/include/uapi/linux/dqblk_xfs.h"
	.file 92 "/build/linux-I5YRU_/linux-3.16.5/include/linux/quota.h"
	.file 93 "/build/linux-I5YRU_/linux-3.16.5/include/linux/projid.h"
	.file 94 "/build/linux-I5YRU_/linux-3.16.5/include/uapi/linux/quota.h"
	.file 95 "/build/linux-I5YRU_/linux-3.16.5/include/linux/nfs_fs_i.h"
	.file 96 "/build/linux-I5YRU_/linux-3.16.5/include/linux/percpu-refcount.h"
	.file 97 "/build/linux-I5YRU_/linux-3.16.5/include/linux/kernfs.h"
	.file 98 "/build/linux-I5YRU_/linux-3.16.5/include/linux/vmstat.h"
	.file 99 "/build/linux-I5YRU_/linux-3.16.5/include/linux/suspend.h"
	.file 100 "/build/linux-I5YRU_/linux-3.16.5/arch/x86/include/asm/desc.h"
	.file 101 "/build/linux-I5YRU_/linux-3.16.5/arch/x86/include/asm/page_types.h"
	.file 102 "/build/linux-I5YRU_/linux-3.16.5/include/linux/printk.h"
	.file 103 "/build/linux-I5YRU_/linux-3.16.5/include/linux/kernel.h"
	.file 104 "/build/linux-I5YRU_/linux-3.16.5/include/asm-generic/percpu.h"
	.file 105 "/build/linux-I5YRU_/linux-3.16.5/arch/x86/include/asm/percpu.h"
	.file 106 "/build/linux-I5YRU_/linux-3.16.5/arch/x86/include/asm/current.h"
	.file 107 "/build/linux-I5YRU_/linux-3.16.5/arch/x86/include/asm/special_insns.h"
	.file 108 "/build/linux-I5YRU_/linux-3.16.5/arch/x86/include/asm/thread_info.h"
	.file 109 "/build/linux-I5YRU_/linux-3.16.5/arch/x86/include/asm/preempt.h"
	.file 110 "/build/linux-I5YRU_/linux-3.16.5/arch/x86/include/asm/spinlock.h"
	.file 111 "/build/linux-I5YRU_/linux-3.16.5/include/linux/time.h"
	.file 112 "/build/linux-I5YRU_/linux-3.16.5/arch/x86/include/asm/acpi.h"
	.file 113 "/build/linux-I5YRU_/linux-3.16.5/arch/x86/include/asm/fixmap.h"
	.file 114 "/build/linux-I5YRU_/linux-3.16.5/include/linux/slab.h"
	.file 115 "/build/linux-I5YRU_/linux-3.16.5/arch/x86/include/asm/irq_regs.h"
	.file 116 "/build/linux-I5YRU_/linux-3.16.5/include/linux/profile.h"
	.file 117 "/build/linux-I5YRU_/linux-3.16.5/include/linux/cgroup_subsys.h"
	.file 118 "/build/linux-I5YRU_/linux-3.16.5/include/linux/memcontrol.h"
	.file 119 "/build/linux-I5YRU_/linux-3.16.5/include/linux/debug_locks.h"
	.file 120 "/build/linux-I5YRU_/linux-3.16.5/include/asm-generic/pgtable.h"
	.file 121 "/build/linux-I5YRU_/linux-3.16.5/include/linux/freezer.h"
	.file 122 "/build/linux-I5YRU_/linux-3.16.5/include/linux/lockdep.h"
	.section	.note.GNU-stack,"",@progbits
